target datalayout = "e-m:e-p270:32:32-p271:32:32-p272:64:64-i64:64-i128:128-f80:128-n8:16:32:64-S128"
target triple = "x86_64-pc-linux-gnu"

%"class.icu_77::number::SimpleNumber" = type <{ ptr, i32, [4 x i8] }>
%"struct.icu_77::number::impl::USimpleNumberData" = type { %"class.icu_77::IcuCApiHelper.14", [4 x i8], %"class.icu_77::number::SimpleNumber" }
%"class.icu_77::IcuCApiHelper.14" = type { i32 }

; Function Attrs: mustprogress nounwind uwtable
define linkonce_odr void @_ZN6icu_776number12SimpleNumberC2Ev(ptr noundef nonnull align 8 dereferenceable(12) %0) unnamed_addr #0 comdat align 2 {
  %2 = alloca ptr, align 8
  store ptr %0, ptr %2, align 8, !tbaa !124
  %3 = load ptr, ptr %2, align 8
  %4 = getelementptr inbounds nuw %"class.icu_77::number::SimpleNumber", ptr %3, i32 0, i32 0
  store ptr null, ptr %4, align 8, !tbaa !126
  %5 = getelementptr inbounds nuw %"class.icu_77::number::SimpleNumber", ptr %3, i32 0, i32 1
  store i32 1, ptr %5, align 8, !tbaa !129
  ret void
}

; Function Attrs: inlinehint mustprogress nounwind uwtable
define linkonce_odr void @_ZN6icu_7713IcuCApiHelperI13USimpleNumberNS_6number4impl17USimpleNumberDataELi1397640448EEC2Ev(ptr noundef nonnull align 4 dereferenceable(4) %0) unnamed_addr #2 comdat align 2 {
  %2 = alloca ptr, align 8
  store ptr %0, ptr %2, align 8, !tbaa !130
  %3 = load ptr, ptr %2, align 8
  %4 = getelementptr inbounds nuw %"class.icu_77::IcuCApiHelper.14", ptr %3, i32 0, i32 0
  store i32 1397640448, ptr %4, align 4, !tbaa !244
  ret void
}

; Function Attrs: mustprogress nounwind uwtable
define linkonce_odr noundef ptr @_ZN6icu_7713IcuCApiHelperI13USimpleNumberNS_6number4impl17USimpleNumberDataELi1397640448EE10exportForCEv(ptr noundef nonnull align 4 dereferenceable(4) %0) #0 comdat align 2 {
  %2 = alloca ptr, align 8
  store ptr %0, ptr %2, align 8, !tbaa !130
  %3 = load ptr, ptr %2, align 8
  ret ptr %3
}

; Function Attrs: mustprogress nounwind uwtable
define linkonce_odr void @_ZN6icu_776number12SimpleNumberD2Ev(ptr noundef nonnull align 8 dereferenceable(12) %0) unnamed_addr #0 comdat align 2 personality ptr @__gxx_personality_v0 {
  %2 = alloca ptr, align 8
  store ptr %0, ptr %2, align 8, !tbaa !124
  %3 = load ptr, ptr %2, align 8
  invoke void @_ZN6icu_776number12SimpleNumber7cleanupEv(ptr noundef nonnull align 8 dereferenceable(12) %3)
          to label %4 unwind label %5

4:                                                ; preds = %1
  ret void

5:                                                ; preds = %1
  %6 = landingpad { ptr, i32 }
          catch ptr null
  %7 = extractvalue { ptr, i32 } %6, 0
  call void @__clang_call_terminate(ptr %7) #13
  unreachable
}

; Function Attrs: mustprogress nounwind uwtable
define linkonce_odr noundef nonnull align 8 dereferenceable(12) ptr @_ZN6icu_776number12SimpleNumberaSEOS1_(ptr noundef nonnull align 8 dereferenceable(12) %0, ptr noundef nonnull align 8 dereferenceable(12) %1) #0 comdat align 2 personality ptr @__gxx_personality_v0 {
  %3 = alloca ptr, align 8
  %4 = alloca ptr, align 8
  store ptr %0, ptr %3, align 8, !tbaa !124
  store ptr %1, ptr %4, align 8, !tbaa !124
  %5 = load ptr, ptr %3, align 8
  invoke void @_ZN6icu_776number12SimpleNumber7cleanupEv(ptr noundef nonnull align 8 dereferenceable(12) %5)
          to label %6 unwind label %17

6:                                                ; preds = %2
  %7 = load ptr, ptr %4, align 8, !tbaa !124
  %8 = getelementptr inbounds nuw %"class.icu_77::number::SimpleNumber", ptr %7, i32 0, i32 0
  %9 = load ptr, ptr %8, align 8, !tbaa !126
  %10 = getelementptr inbounds nuw %"class.icu_77::number::SimpleNumber", ptr %5, i32 0, i32 0
  store ptr %9, ptr %10, align 8, !tbaa !126
  %11 = load ptr, ptr %4, align 8, !tbaa !124
  %12 = getelementptr inbounds nuw %"class.icu_77::number::SimpleNumber", ptr %11, i32 0, i32 1
  %13 = load i32, ptr %12, align 8, !tbaa !129
  %14 = getelementptr inbounds nuw %"class.icu_77::number::SimpleNumber", ptr %5, i32 0, i32 1
  store i32 %13, ptr %14, align 8, !tbaa !129
  %15 = load ptr, ptr %4, align 8, !tbaa !124
  %16 = getelementptr inbounds nuw %"class.icu_77::number::SimpleNumber", ptr %15, i32 0, i32 0
  store ptr null, ptr %16, align 8, !tbaa !126
  ret ptr %5

17:                                               ; preds = %2
  %18 = landingpad { ptr, i32 }
          catch ptr null
  %19 = extractvalue { ptr, i32 } %18, 0
  call void @__clang_call_terminate(ptr %19) #13
  unreachable
}

; Function Attrs: inlinehint mustprogress nounwind uwtable
define linkonce_odr void @_ZN6icu_776number4impl17USimpleNumberDataC2Ev(ptr noundef nonnull align 8 dereferenceable(24) %0) unnamed_addr #2 comdat align 2 {
  %2 = alloca ptr, align 8
  store ptr %0, ptr %2, align 8, !tbaa !122
  %3 = load ptr, ptr %2, align 8
  call void @_ZN6icu_7713IcuCApiHelperI13USimpleNumberNS_6number4impl17USimpleNumberDataELi1397640448EEC2Ev(ptr noundef nonnull align 4 dereferenceable(4) %3) #11
  %4 = getelementptr inbounds nuw %"struct.icu_77::number::impl::USimpleNumberData", ptr %3, i32 0, i32 2
  call void @_ZN6icu_776number12SimpleNumberC2Ev(ptr noundef nonnull align 8 dereferenceable(12) %4) #11
  ret void
}

; Function Attrs: mustprogress uwtable
define ptr @usnum_openForInt64_77(i64 noundef %0, ptr noundef %1) #1 {
  %3 = alloca ptr, align 8
  %4 = alloca i64, align 8
  %5 = alloca ptr, align 8
  %6 = alloca ptr, align 8
  %7 = alloca i1, align 1
  %8 = alloca i32, align 4
  %9 = alloca %"class.icu_77::number::SimpleNumber", align 8
  store i64 %0, ptr %4, align 8, !tbaa !18
  store ptr %1, ptr %5, align 8, !tbaa !22
  call void @llvm.lifetime.start.p0(i64 8, ptr %6) #11
  %10 = call noundef ptr @_ZN6icu_777UMemorynwEm(i64 noundef 24) #11
  %11 = icmp eq ptr %10, null
  store i1 false, ptr %7, align 1
  br i1 %11, label %13, label %12

12:                                               ; preds = %2
  store i1 true, ptr %7, align 1
  call void @llvm.memset.p0.i64(ptr align 8 %10, i8 0, i64 24, i1 false)
  call void @_ZN6icu_776number4impl17USimpleNumberDataC2Ev(ptr noundef nonnull align 8 dereferenceable(24) %10) #11
  br label %13

13:                                               ; preds = %12, %2
  %14 = phi ptr [ %10, %12 ], [ null, %2 ]
  store ptr %14, ptr %6, align 8, !tbaa !122
  %15 = load ptr, ptr %6, align 8, !tbaa !122
  %16 = icmp eq ptr %15, null
  br i1 %16, label %17, label %19

17:                                               ; preds = %13
  %18 = load ptr, ptr %5, align 8, !tbaa !22
  store i32 7, ptr %18, align 4, !tbaa !15
  store ptr null, ptr %3, align 8
  store i32 1, ptr %8, align 4
  br label %27

19:                                               ; preds = %13
  call void @llvm.lifetime.start.p0(i64 16, ptr %9) #11
  %20 = load i64, ptr %4, align 8, !tbaa !18
  %21 = load ptr, ptr %5, align 8, !tbaa !22
  call void @_ZN6icu_776number12SimpleNumber8forInt64ElR10UErrorCode(ptr dead_on_unwind writable sret(%"class.icu_77::number::SimpleNumber") align 8 %9, i64 noundef %20, ptr noundef nonnull align 4 dereferenceable(4) %21)
  %22 = load ptr, ptr %6, align 8, !tbaa !122
  %23 = getelementptr inbounds nuw %"struct.icu_77::number::impl::USimpleNumberData", ptr %22, i32 0, i32 2
  %24 = call noundef nonnull align 8 dereferenceable(12) ptr @_ZN6icu_776number12SimpleNumberaSEOS1_(ptr noundef nonnull align 8 dereferenceable(12) %23, ptr noundef nonnull align 8 dereferenceable(12) %9) #11
  call void @_ZN6icu_776number12SimpleNumberD2Ev(ptr noundef nonnull align 8 dereferenceable(12) %9) #11
  call void @llvm.lifetime.end.p0(i64 16, ptr %9) #11
  %25 = load ptr, ptr %6, align 8, !tbaa !122
  %26 = call noundef ptr @_ZN6icu_7713IcuCApiHelperI13USimpleNumberNS_6number4impl17USimpleNumberDataELi1397640448EE10exportForCEv(ptr noundef nonnull align 4 dereferenceable(4) %25)
  store ptr %26, ptr %3, align 8
  store i32 1, ptr %8, align 4
  br label %27

27:                                               ; preds = %19, %17
  call void @llvm.lifetime.end.p0(i64 8, ptr %6) #11
  %28 = load ptr, ptr %3, align 8
  ret ptr %28
}