; Function Attrs: mustprogress uwtable
define noundef ptr @usnum_openForInt64_77(i64 noundef %0, ptr noundef %1) local_unnamed_addr #1 personality ptr @__gxx_personality_v0 {
  %3 = alloca %"class.icu_77::number::SimpleNumber", align 8
  %4 = tail call noundef ptr @_ZN6icu_777UMemorynwEm(i64 noundef 24) #15
  %5 = icmp eq ptr %4, null
  br i1 %5, label %6, label %7

6:                                                ; preds = %2
  store i32 7, ptr %1, align 4, !tbaa !13
  br label %19

7:                                                ; preds = %2
  tail call void @llvm.memset.p0.i64(ptr noundef nonnull align 8 dereferenceable(24) %4, i8 0, i64 24, i1 false)
  store i32 1397640448, ptr %4, align 4, !tbaa !77
  %8 = getelementptr inbounds nuw i8, ptr %4, i64 8
  %9 = getelementptr inbounds nuw i8, ptr %4, i64 16
  store i32 1, ptr %9, align 8, !tbaa !79
  call void @llvm.lifetime.start.p0(i64 16, ptr nonnull %3) #15
  call void @_ZN6icu_776number12SimpleNumber8forInt64ElR10UErrorCode(ptr dead_on_unwind nonnull writable sret(%"class.icu_77::number::SimpleNumber") align 8 %3, i64 noundef %0, ptr noundef nonnull align 4 dereferenceable(4) %1)
  invoke void @_ZN6icu_776number12SimpleNumber7cleanupEv(ptr noundef nonnull align 8 dereferenceable(12) %8)
          to label %_ZN6icu_776number12SimpleNumberaSEOS1_.exit unwind label %10

10:                                               ; preds = %7
  %11 = landingpad { ptr, i32 }
          catch ptr null
  %12 = extractvalue { ptr, i32 } %11, 0
  call void @__clang_call_terminate(ptr %12) #17
  unreachable

_ZN6icu_776number12SimpleNumberaSEOS1_.exit:      ; preds = %7
  %13 = load ptr, ptr %3, align 8, !tbaa !82
  store ptr %13, ptr %8, align 8, !tbaa !82
  %14 = getelementptr inbounds nuw i8, ptr %3, i64 8
  %15 = load i32, ptr %14, align 8, !tbaa !79
  store i32 %15, ptr %9, align 8, !tbaa !79
  store ptr null, ptr %3, align 8, !tbaa !82
  invoke void @_ZN6icu_776number12SimpleNumber7cleanupEv(ptr noundef nonnull align 8 dereferenceable(12) %3)
          to label %_ZN6icu_776number12SimpleNumberD2Ev.exit unwind label %16

16:                                               ; preds = %_ZN6icu_776number12SimpleNumberaSEOS1_.exit
  %17 = landingpad { ptr, i32 }
          catch ptr null
  %18 = extractvalue { ptr, i32 } %17, 0
  call void @__clang_call_terminate(ptr %18) #17
  unreachable

_ZN6icu_776number12SimpleNumberD2Ev.exit:         ; preds = %_ZN6icu_776number12SimpleNumberaSEOS1_.exit
  call void @llvm.lifetime.end.p0(i64 16, ptr nonnull %3) #15
  br label %19

19:                                               ; preds = %_ZN6icu_776number12SimpleNumberD2Ev.exit, %6
  ret ptr %4
}